target datalayout = "e-m:e-p270:32:32-p271:32:32-p272:64:64-i64:64-i128:128-f80:128-n8:16:32:64-S128"
target triple = "x86_64-pc-linux-gnu"

%struct.jpeg_decompress_struct = type { ptr, ptr, ptr, ptr, i32, i32, ptr, i32, i32, i32, i32, i32, i32, i32, double, i32, i32, i32, i32, i32, i32, i32, i32, i32, i32, i32, i32, i32, i32, i32, i32, i32, i32, ptr, i32, i32, i32, i32, i32, ptr, [4 x ptr], [4 x ptr], [4 x ptr], i32, ptr, i32, i32, [16 x i8], [16 x i8], [16 x i8], i32, i32, i8, i8, i8, i16, i16, i32, i8, i32, ptr, i32, i32, i32, i32, ptr, i32, [4 x ptr], i32, i32, i32, [10 x i32], i32, i32, i32, i32, i32, ptr, ptr, ptr, ptr, ptr, ptr, ptr, ptr, ptr, ptr, ptr }
%struct.my_cquantizer = type { %struct.jpeg_color_quantizer, ptr, i32, ptr, i32, [4 x i32], i32, [4 x ptr], [4 x ptr], i32 }
%struct.jpeg_color_quantizer = type { ptr, ptr, ptr, ptr, ptr }

; Function Attrs: nounwind uwtable
define internal void @color_quantize(ptr noundef %0, ptr noundef %1, ptr noundef %2, i32 noundef %3) #0 {
  %5 = alloca ptr, align 8
  %6 = alloca ptr, align 8
  %7 = alloca ptr, align 8
  %8 = alloca i32, align 4
  %9 = alloca ptr, align 8
  %10 = alloca ptr, align 8
  %11 = alloca i32, align 4
  %12 = alloca i32, align 4
  %13 = alloca ptr, align 8
  %14 = alloca ptr, align 8
  %15 = alloca i32, align 4
  %16 = alloca i32, align 4
  %17 = alloca i32, align 4
  %18 = alloca i32, align 4
  store ptr %0, ptr %5, align 8, !tbaa !3
  store ptr %1, ptr %6, align 8, !tbaa !72
  store ptr %2, ptr %7, align 8, !tbaa !72
  store i32 %3, ptr %8, align 4, !tbaa !57
  call void @llvm.lifetime.start.p0(i64 8, ptr %9) #4
  %19 = load ptr, ptr %5, align 8, !tbaa !3
  %20 = getelementptr inbounds nuw %struct.jpeg_decompress_struct, ptr %19, i32 0, i32 87
  %21 = load ptr, ptr %20, align 8, !tbaa !45
  store ptr %21, ptr %9, align 8, !tbaa !44
  call void @llvm.lifetime.start.p0(i64 8, ptr %10) #4
  %22 = load ptr, ptr %9, align 8, !tbaa !44
  %23 = getelementptr inbounds nuw %struct.my_cquantizer, ptr %22, i32 0, i32 3
  %24 = load ptr, ptr %23, align 8, !tbaa !78
  store ptr %24, ptr %10, align 8, !tbaa !72
  call void @llvm.lifetime.start.p0(i64 4, ptr %11) #4
  call void @llvm.lifetime.start.p0(i64 4, ptr %12) #4
  call void @llvm.lifetime.start.p0(i64 8, ptr %13) #4
  call void @llvm.lifetime.start.p0(i64 8, ptr %14) #4
  call void @llvm.lifetime.start.p0(i64 4, ptr %15) #4
  call void @llvm.lifetime.start.p0(i64 4, ptr %16) #4
  call void @llvm.lifetime.start.p0(i64 4, ptr %17) #4
  %25 = load ptr, ptr %5, align 8, !tbaa !3
  %26 = getelementptr inbounds nuw %struct.jpeg_decompress_struct, ptr %25, i32 0, i32 27
  %27 = load i32, ptr %26, align 8, !tbaa !66
  store i32 %27, ptr %17, align 4, !tbaa !57
  call void @llvm.lifetime.start.p0(i64 4, ptr %18) #4
  %28 = load ptr, ptr %5, align 8, !tbaa !3
  %29 = getelementptr inbounds nuw %struct.jpeg_decompress_struct, ptr %28, i32 0, i32 29
  %30 = load i32, ptr %29, align 8, !tbaa !54
  store i32 %30, ptr %18, align 4, !tbaa !57
  store i32 0, ptr %15, align 4, !tbaa !57
  br label %31

31:                                               ; preds = %82, %4
  %32 = load i32, ptr %15, align 4, !tbaa !57
  %33 = load i32, ptr %8, align 4, !tbaa !57
  %34 = icmp slt i32 %32, %33
  br i1 %34, label %35, label %85

35:                                               ; preds = %31
  %36 = load ptr, ptr %6, align 8, !tbaa !72
  %37 = load i32, ptr %15, align 4, !tbaa !57
  %38 = sext i32 %37 to i64
  %39 = getelementptr inbounds ptr, ptr %36, i64 %38
  %40 = load ptr, ptr %39, align 8, !tbaa !73
  store ptr %40, ptr %13, align 8, !tbaa !73
  %41 = load ptr, ptr %7, align 8, !tbaa !72
  %42 = load i32, ptr %15, align 4, !tbaa !57
  %43 = sext i32 %42 to i64
  %44 = getelementptr inbounds ptr, ptr %41, i64 %43
  %45 = load ptr, ptr %44, align 8, !tbaa !73
  store ptr %45, ptr %14, align 8, !tbaa !73
  %46 = load i32, ptr %17, align 4, !tbaa !57
  store i32 %46, ptr %16, align 4, !tbaa !57
  br label %47

47:                                               ; preds = %78, %35
  %48 = load i32, ptr %16, align 4, !tbaa !57
  %49 = icmp ugt i32 %48, 0
  br i1 %49, label %50, label %81

50:                                               ; preds = %47
  store i32 0, ptr %11, align 4, !tbaa !57
  store i32 0, ptr %12, align 4, !tbaa !57
  br label %51

51:                                               ; preds = %70, %50
  %52 = load i32, ptr %12, align 4, !tbaa !57
  %53 = load i32, ptr %18, align 4, !tbaa !57
  %54 = icmp slt i32 %52, %53
  br i1 %54, label %55, label %73

55:                                               ; preds = %51
  %56 = load ptr, ptr %10, align 8, !tbaa !72
  %57 = load i32, ptr %12, align 4, !tbaa !57
  %58 = sext i32 %57 to i64
  %59 = getelementptr inbounds ptr, ptr %56, i64 %58
  %60 = load ptr, ptr %59, align 8, !tbaa !73
  %61 = load ptr, ptr %13, align 8, !tbaa !73
  %62 = getelementptr inbounds nuw i8, ptr %61, i32 1
  store ptr %62, ptr %13, align 8, !tbaa !73
  %63 = load i8, ptr %61, align 1, !tbaa !36
  %64 = zext i8 %63 to i64
  %65 = getelementptr inbounds nuw i8, ptr %60, i64 %64
  %66 = load i8, ptr %65, align 1, !tbaa !36
  %67 = zext i8 %66 to i32
  %68 = load i32, ptr %11, align 4, !tbaa !57
  %69 = add nsw i32 %68, %67
  store i32 %69, ptr %11, align 4, !tbaa !57
  br label %70

70:                                               ; preds = %55
  %71 = load i32, ptr %12, align 4, !tbaa !57
  %72 = add nsw i32 %71, 1
  store i32 %72, ptr %12, align 4, !tbaa !57
  br label %51, !llvm.loop !87

73:                                               ; preds = %51
  %74 = load i32, ptr %11, align 4, !tbaa !57
  %75 = trunc i32 %74 to i8
  %76 = load ptr, ptr %14, align 8, !tbaa !73
  %77 = getelementptr inbounds nuw i8, ptr %76, i32 1
  store ptr %77, ptr %14, align 8, !tbaa !73
  store i8 %75, ptr %76, align 1, !tbaa !36
  br label %78

78:                                               ; preds = %73
  %79 = load i32, ptr %16, align 4, !tbaa !57
  %80 = add i32 %79, -1
  store i32 %80, ptr %16, align 4, !tbaa !57
  br label %47, !llvm.loop !88

81:                                               ; preds = %47
  br label %82

82:                                               ; preds = %81
  %83 = load i32, ptr %15, align 4, !tbaa !57
  %84 = add nsw i32 %83, 1
  store i32 %84, ptr %15, align 4, !tbaa !57
  br label %31, !llvm.loop !89

85:                                               ; preds = %31
  call void @llvm.lifetime.end.p0(i64 4, ptr %18) #4
  call void @llvm.lifetime.end.p0(i64 4, ptr %17) #4
  call void @llvm.lifetime.end.p0(i64 4, ptr %16) #4
  call void @llvm.lifetime.end.p0(i64 4, ptr %15) #4
  call void @llvm.lifetime.end.p0(i64 8, ptr %14) #4
  call void @llvm.lifetime.end.p0(i64 8, ptr %13) #4
  call void @llvm.lifetime.end.p0(i64 4, ptr %12) #4
  call void @llvm.lifetime.end.p0(i64 4, ptr %11) #4
  call void @llvm.lifetime.end.p0(i64 8, ptr %10) #4
  call void @llvm.lifetime.end.p0(i64 8, ptr %9) #4
  ret void
}